target datalayout = "e-m:e-p270:32:32-p271:32:32-p272:64:64-i64:64-i128:128-f80:128-n8:16:32:64-S128"
target triple = "x86_64-pc-linux-gnu"

%"class.icu_77::ParseData" = type { %"class.icu_77::SymbolTable", ptr, ptr, ptr }
%"class.icu_77::SymbolTable" = type { ptr }
%"class.icu_77::Hashtable" = type { ptr, %struct.UHashtable }
%struct.UHashtable = type { ptr, ptr, ptr, ptr, ptr, ptr, i32, i32, i32, i32, float, float, i8, i8 }
%"class.icu_77::TransliterationRuleData" = type { [8 x i8], %"class.icu_77::TransliterationRuleSet", %"class.icu_77::Hashtable", ptr, i8, i16, i32 }
%"class.icu_77::TransliterationRuleSet" = type { ptr, ptr, ptr, [257 x i32], i32 }
%"class.icu_77::UVector" = type { %"class.icu_77::UObject", i32, i32, ptr, ptr, ptr }
%"class.icu_77::UObject" = type { ptr }

; Function Attrs: inlinehint mustprogress nounwind uwtable
define linkonce_odr noundef i32 @_ZNK6icu_777UVector4sizeEv(ptr noundef nonnull align 8 dereferenceable(40) %0) #2 comdat align 2 {
  %2 = alloca ptr, align 8
  store ptr %0, ptr %2, align 8, !tbaa !27
  %3 = load ptr, ptr %2, align 8
  %4 = getelementptr inbounds nuw %"class.icu_77::UVector", ptr %3, i32 0, i32 1
  %5 = load i32, ptr %4, align 8, !tbaa !57
  ret i32 %5
}

; Function Attrs: mustprogress uwtable
define noundef ptr @_ZNK6icu_779ParseData13lookupMatcherEi(ptr noundef nonnull align 8 dereferenceable(32) %0, i32 noundef %1) unnamed_addr #1 align 2 {
  %3 = alloca ptr, align 8
  %4 = alloca i32, align 4
  %5 = alloca ptr, align 8
  %6 = alloca i32, align 4
  %7 = alloca i32, align 4
  store ptr %0, ptr %3, align 8, !tbaa !23
  store i32 %1, ptr %4, align 4, !tbaa !14
  %8 = load ptr, ptr %3, align 8
  call void @llvm.lifetime.start.p0(i64 8, ptr %5) #11
  store ptr null, ptr %5, align 8, !tbaa !48
  call void @llvm.lifetime.start.p0(i64 4, ptr %6) #11
  %9 = load i32, ptr %4, align 4, !tbaa !14
  %10 = getelementptr inbounds nuw %"class.icu_77::ParseData", ptr %8, i32 0, i32 1
  %11 = load ptr, ptr %10, align 8, !tbaa !33
  %12 = getelementptr inbounds nuw %"class.icu_77::TransliterationRuleData", ptr %11, i32 0, i32 5
  %13 = load i16, ptr %12, align 2, !tbaa !50
  %14 = zext i16 %13 to i32
  %15 = sub nsw i32 %9, %14
  store i32 %15, ptr %6, align 4, !tbaa !14
  %16 = load i32, ptr %6, align 4, !tbaa !14
  %17 = icmp sge i32 %16, 0
  br i1 %17, label %18, label %45

18:                                               ; preds = %2
  %19 = load i32, ptr %6, align 4, !tbaa !14
  %20 = getelementptr inbounds nuw %"class.icu_77::ParseData", ptr %8, i32 0, i32 2
  %21 = load ptr, ptr %20, align 8, !tbaa !36
  %22 = call noundef i32 @_ZNK6icu_777UVector4sizeEv(ptr noundef nonnull align 8 dereferenceable(40) %21)
  %23 = icmp slt i32 %19, %22
  br i1 %23, label %24, label %45

24:                                               ; preds = %18
  call void @llvm.lifetime.start.p0(i64 4, ptr %7) #11
  %25 = load i32, ptr %4, align 4, !tbaa !14
  %26 = getelementptr inbounds nuw %"class.icu_77::ParseData", ptr %8, i32 0, i32 1
  %27 = load ptr, ptr %26, align 8, !tbaa !33
  %28 = getelementptr inbounds nuw %"class.icu_77::TransliterationRuleData", ptr %27, i32 0, i32 5
  %29 = load i16, ptr %28, align 2, !tbaa !50
  %30 = zext i16 %29 to i32
  %31 = sub nsw i32 %25, %30
  store i32 %31, ptr %7, align 4, !tbaa !14
  %32 = load i32, ptr %7, align 4, !tbaa !14
  %33 = getelementptr inbounds nuw %"class.icu_77::ParseData", ptr %8, i32 0, i32 2
  %34 = load ptr, ptr %33, align 8, !tbaa !36
  %35 = call noundef i32 @_ZNK6icu_777UVector4sizeEv(ptr noundef nonnull align 8 dereferenceable(40) %34)
  %36 = icmp slt i32 %32, %35
  br i1 %36, label %37, label %42

37:                                               ; preds = %24
  %38 = getelementptr inbounds nuw %"class.icu_77::ParseData", ptr %8, i32 0, i32 2
  %39 = load ptr, ptr %38, align 8, !tbaa !36
  %40 = load i32, ptr %7, align 4, !tbaa !14
  %41 = call noundef ptr @_ZNK6icu_777UVector9elementAtEi(ptr noundef nonnull align 8 dereferenceable(40) %39, i32 noundef %40)
  br label %43

42:                                               ; preds = %24
  br label %43

43:                                               ; preds = %42, %37
  %44 = phi ptr [ %41, %37 ], [ null, %42 ]
  store ptr %44, ptr %5, align 8, !tbaa !48
  call void @llvm.lifetime.end.p0(i64 4, ptr %7) #11
  br label %45

45:                                               ; preds = %43, %18, %2
  %46 = load ptr, ptr %5, align 8, !tbaa !48
  call void @llvm.lifetime.end.p0(i64 4, ptr %6) #11
  call void @llvm.lifetime.end.p0(i64 8, ptr %5) #11
  ret ptr %46
}