; Function Attrs: mustprogress uwtable
define noundef ptr @_ZNK6icu_779ParseData13lookupMatcherEi(ptr noundef nonnull readonly align 8 captures(none) dereferenceable(32) %0, i32 noundef %1) unnamed_addr #1 align 2 {
  %3 = getelementptr inbounds nuw i8, ptr %0, i64 8
  %4 = load ptr, ptr %3, align 8, !tbaa !17
  %5 = getelementptr inbounds nuw i8, ptr %4, i64 1162
  %6 = load i16, ptr %5, align 2, !tbaa !31
  %7 = zext i16 %6 to i32
  %8 = sub nsw i32 %1, %7
  %9 = icmp sgt i32 %8, -1
  br i1 %9, label %10, label %18

10:                                               ; preds = %2
  %11 = getelementptr inbounds nuw i8, ptr %0, i64 16
  %12 = load ptr, ptr %11, align 8, !tbaa !23
  %13 = getelementptr inbounds nuw i8, ptr %12, i64 8
  %14 = load i32, ptr %13, align 8, !tbaa !38
  %15 = icmp slt i32 %8, %14
  br i1 %15, label %16, label %18

16:                                               ; preds = %10
  %17 = tail call noundef ptr @_ZNK6icu_777UVector9elementAtEi(ptr noundef nonnull align 8 dereferenceable(40) %12, i32 noundef %8)
  br label %18

18:                                               ; preds = %16, %10, %2
  %.0 = phi ptr [ null, %10 ], [ null, %2 ], [ %17, %16 ]
  ret ptr %.0
}